; Function Attrs: nounwind uwtable
define ptr @H5EA__dblk_page_protect(ptr noundef %0, ptr noundef %1, i64 noundef %2, i32 noundef %3) local_unnamed_addr #0 {
  %5 = alloca %struct.H5EA_dblk_page_cache_ud_t, align 8
  store ptr %0, ptr %5, align 8
  %6 = getelementptr inbounds i8, ptr %5, i64 8
  store ptr %1, ptr %6, align 8
  %7 = getelementptr inbounds i8, ptr %5, i64 16
  store i64 %2, ptr %7, align 8
  %8 = getelementptr inbounds i8, ptr %0, i64 384
  %9 = load ptr, ptr %8, align 8
  %10 = call ptr @H5AC_protect(ptr noundef %9, ptr noundef nonnull @H5AC_EARRAY_DBLK_PAGE, i64 noundef %2, ptr noundef nonnull %5, i32 noundef %3) #2
  %11 = icmp eq ptr %10, null
  br i1 %11, label %12, label %16

12:                                               ; preds = %4
  %13 = load i64, ptr @H5E_EARRAY_g, align 8
  %14 = load i64, ptr @H5E_CANTPROTECT_g, align 8
  %15 = call i32 (ptr, ptr, i32, i64, i64, ptr, ...) @H5E_printf_stack(ptr noundef nonnull @.str, ptr noundef nonnull @__func__.H5EA__dblk_page_protect, i32 noundef 222, i64 noundef %13, i64 noundef %14, ptr noundef nonnull @.str.9, i64 noundef %2) #2
  br label %.thread

16:                                               ; preds = %4
  %17 = getelementptr inbounds i8, ptr %0, i64 472
  %18 = load ptr, ptr %17, align 8
  %.not = icmp eq ptr %18, null
  br i1 %.not, label %.thread, label %19

19:                                               ; preds = %16
  %20 = getelementptr inbounds i8, ptr %10, i64 288
  %21 = load ptr, ptr %20, align 8
  %22 = icmp eq ptr %21, null
  br i1 %22, label %23, label %.thread

23:                                               ; preds = %19
  %24 = load ptr, ptr %8, align 8
  %25 = call i32 @H5AC_proxy_entry_add_child(ptr noundef nonnull %18, ptr noundef %24, ptr noundef nonnull %10) #2
  %26 = icmp slt i32 %25, 0
  br i1 %26, label %29, label %27

27:                                               ; preds = %23
  %28 = load ptr, ptr %17, align 8
  store ptr %28, ptr %20, align 8
  br label %.thread

29:                                               ; preds = %23
  %30 = load i64, ptr @H5E_EARRAY_g, align 8
  %31 = load i64, ptr @H5E_CANTSET_g, align 8
  %32 = call i32 (ptr, ptr, i32, i64, i64, ptr, ...) @H5E_printf_stack(ptr noundef nonnull @.str, ptr noundef nonnull @__func__.H5EA__dblk_page_protect, i32 noundef 229, i64 noundef %30, i64 noundef %31, ptr noundef nonnull @.str.7) #2
  %33 = load ptr, ptr %8, align 8
  %34 = getelementptr inbounds i8, ptr %10, i64 264
  %35 = load i64, ptr %34, align 8
  %36 = call i32 @H5AC_unprotect(ptr noundef %33, ptr noundef nonnull @H5AC_EARRAY_DBLK_PAGE, i64 noundef %35, ptr noundef nonnull %10, i32 noundef 0) #2
  %37 = icmp slt i32 %36, 0
  br i1 %37, label %38, label %.thread

38:                                               ; preds = %29
  %39 = load i64, ptr @H5E_EARRAY_g, align 8
  %40 = load i64, ptr @H5E_CANTUNPROTECT_g, align 8
  %41 = load i64, ptr %34, align 8
  %42 = call i32 (ptr, ptr, i32, i64, i64, ptr, ...) @H5E_printf_stack(ptr noundef nonnull @.str, ptr noundef nonnull @__func__.H5EA__dblk_page_protect, i32 noundef 244, i64 noundef %39, i64 noundef %40, ptr noundef nonnull @.str.10, i64 noundef %41) #2
  br label %.thread

.thread:                                          ; preds = %12, %16, %19, %27, %29, %38
  %.1 = phi ptr [ null, %38 ], [ null, %29 ], [ %10, %16 ], [ %10, %19 ], [ %10, %27 ], [ null, %12 ]
  ret ptr %.1
}